target datalayout = "e-m:e-p270:32:32-p271:32:32-p272:64:64-i64:64-i128:128-f80:128-n8:16:32:64-S128"
target triple = "x86_64-pc-linux-gnu"

%struct._address = type { i32, i32, ptr, ptr }
%struct._rdpudp_conv_info_t = type { i32, i8, %struct._address, i16, ptr, %struct.rdpudp_seq_context_t, %struct.rdpudp_seq_context_t, ptr, %struct.rdpudp_seq_context_t, %struct.rdpudp_seq_context_t }
%struct.rdpudp_seq_context_t = type { i64, i16 }

@proto_rdpudp = hidden global i32 0, align 4

; Function Attrs: null_pointer_is_valid sspstrong uwtable
define hidden zeroext i1 @rdpudp_is_reliable_transport(ptr noundef %0) #0 {
  %2 = alloca i1, align 1
  %3 = alloca ptr, align 8
  %4 = alloca ptr, align 8
  %5 = alloca ptr, align 8
  %6 = alloca i32, align 4
  store ptr %0, ptr %3, align 8
  call void @llvm.lifetime.start.p0(i64 8, ptr %4) #9
  call void @llvm.lifetime.start.p0(i64 8, ptr %5) #9
  %7 = load ptr, ptr %3, align 8
  %8 = call ptr @find_conversation_pinfo(ptr noundef %7, i32 noundef 0)
  store ptr %8, ptr %4, align 8
  %9 = load ptr, ptr %4, align 8
  %10 = icmp ne ptr %9, null
  br i1 %10, label %12, label %11

11:                                               ; preds = %1
  store i1 false, ptr %2, align 1
  store i32 1, ptr %6, align 4
  br label %25

12:                                               ; preds = %1
  %13 = load ptr, ptr %4, align 8
  %14 = load i32, ptr @proto_rdpudp, align 4
  %15 = call ptr @conversation_get_proto_data(ptr noundef %13, i32 noundef %14)
  store ptr %15, ptr %5, align 8
  %16 = load ptr, ptr %5, align 8
  %17 = icmp ne ptr %16, null
  br i1 %17, label %19, label %18

18:                                               ; preds = %12
  store i1 false, ptr %2, align 1
  store i32 1, ptr %6, align 4
  br label %25

19:                                               ; preds = %12
  %20 = load ptr, ptr %5, align 8
  %21 = getelementptr inbounds nuw %struct._rdpudp_conv_info_t, ptr %20, i32 0, i32 1
  %22 = load i8, ptr %21, align 4, !range !6, !noundef !7
  %23 = trunc i8 %22 to i1
  %24 = xor i1 %23, true
  store i1 %24, ptr %2, align 1
  store i32 1, ptr %6, align 4
  br label %25

25:                                               ; preds = %19, %18, %11
  call void @llvm.lifetime.end.p0(i64 8, ptr %5) #9
  call void @llvm.lifetime.end.p0(i64 8, ptr %4) #9
  %26 = load i1, ptr %2, align 1
  ret i1 %26
}