; Function Attrs: null_pointer_is_valid sspstrong uwtable
define hidden zeroext i1 @rdpudp_is_reliable_transport(ptr noundef %0) local_unnamed_addr #0 {
  %2 = tail call ptr @find_conversation_pinfo(ptr noundef %0, i32 noundef 0)
  %.not = icmp eq ptr %2, null
  br i1 %.not, label %11, label %3

3:                                                ; preds = %1
  %4 = load i32, ptr @proto_rdpudp, align 4
  %5 = tail call ptr @conversation_get_proto_data(ptr noundef nonnull %2, i32 noundef %4)
  %.not8 = icmp eq ptr %5, null
  br i1 %.not8, label %11, label %6

6:                                                ; preds = %3
  %7 = getelementptr inbounds nuw i8, ptr %5, i64 4
  %8 = load i8, ptr %7, align 4, !range !6, !noundef !7
  %9 = trunc nuw i8 %8 to i1
  %10 = xor i1 %9, true
  br label %11

11:                                               ; preds = %3, %1, %6
  %.0 = phi i1 [ %10, %6 ], [ false, %1 ], [ false, %3 ]
  ret i1 %.0
}